target datalayout = "e-m:e-p270:32:32-p271:32:32-p272:64:64-i64:64-i128:128-f80:128-n8:16:32:64-S128"
target triple = "x86_64-unknown-linux-gnu"

%"class.node::http2::Http2Stream" = type { %"class.node::AsyncWrap", %"class.node::StreamBase", %"struct.node::http2::Http2Stream::Statistics", %"class.node::BaseObjectPtrImpl.2", i32, i32, i32, i32, i32, i32, i32, %"class.std::vector", i64, %"class.std::queue", i64, %"class.node::http2::Http2StreamListener" }
%"class.node::AsyncWrap" = type { %"class.node::BaseObject", i32, i8, double, double }
%"class.node::BaseObject" = type { %"class.node::MemoryRetainer", %"class.v8::Global", ptr, ptr }
%"class.node::MemoryRetainer" = type { ptr }
%"class.v8::Global" = type { %"class.v8::PersistentBase" }
%"class.v8::PersistentBase" = type { %"class.v8::IndirectHandleBase" }
%"class.v8::IndirectHandleBase" = type { ptr }
%"class.node::StreamBase" = type { %"class.node::StreamResource", ptr, %"class.node::EmitToJSStreamListener" }
%"class.node::StreamResource" = type { ptr, ptr, i64, i64 }
%"class.node::EmitToJSStreamListener" = type { %"class.node::ReportWritesToJSStreamListener" }
%"class.node::ReportWritesToJSStreamListener" = type { %"class.node::StreamListener" }
%"class.node::StreamListener" = type { ptr, ptr, ptr }
%"struct.node::http2::Http2Stream::Statistics" = type { i64, i64, i64, i64, i64, i64, i64, i64 }
%"class.node::BaseObjectPtrImpl.2" = type { %union.anon.3 }
%union.anon.3 = type { ptr }
%"class.std::vector" = type { %"struct.std::_Vector_base" }
%"struct.std::_Vector_base" = type { %"struct.std::_Vector_base<node::NgHeader<node::http2::Http2HeaderTraits>, std::allocator<node::NgHeader<node::http2::Http2HeaderTraits>>>::_Vector_impl" }
%"struct.std::_Vector_base<node::NgHeader<node::http2::Http2HeaderTraits>, std::allocator<node::NgHeader<node::http2::Http2HeaderTraits>>>::_Vector_impl" = type { %"struct.std::_Vector_base<node::NgHeader<node::http2::Http2HeaderTraits>, std::allocator<node::NgHeader<node::http2::Http2HeaderTraits>>>::_Vector_impl_data" }
%"struct.std::_Vector_base<node::NgHeader<node::http2::Http2HeaderTraits>, std::allocator<node::NgHeader<node::http2::Http2HeaderTraits>>>::_Vector_impl_data" = type { ptr, ptr, ptr }
%"class.std::queue" = type { %"class.std::deque" }
%"class.std::deque" = type { %"class.std::_Deque_base" }
%"class.std::_Deque_base" = type { %"struct.std::_Deque_base<node::http2::NgHttp2StreamWrite, std::allocator<node::http2::NgHttp2StreamWrite>>::_Deque_impl" }
%"struct.std::_Deque_base<node::http2::NgHttp2StreamWrite, std::allocator<node::http2::NgHttp2StreamWrite>>::_Deque_impl" = type { %"struct.std::_Deque_base<node::http2::NgHttp2StreamWrite, std::allocator<node::http2::NgHttp2StreamWrite>>::_Deque_impl_data" }
%"struct.std::_Deque_base<node::http2::NgHttp2StreamWrite, std::allocator<node::http2::NgHttp2StreamWrite>>::_Deque_impl_data" = type { ptr, i64, %"struct.std::_Deque_iterator", %"struct.std::_Deque_iterator" }
%"struct.std::_Deque_iterator" = type { ptr, ptr, ptr, ptr }
%"class.node::http2::Http2StreamListener" = type { %"class.node::StreamListener" }
%"class.node::BaseObjectPtrImpl.411" = type { %union.anon.412 }
%union.anon.412 = type { ptr }
%struct.nghttp2_frame_hd = type { i64, i32, i8, i8, i8 }
%struct.nghttp2_push_promise = type { %struct.nghttp2_frame_hd, i64, ptr, i64, i32, i8 }

; Function Attrs: mustprogress nounwind uwtable
define linkonce_odr dso_local noundef ptr @_ZNK4node17BaseObjectPtrImplINS_5http211Http2StreamELb0EE15get_base_objectEv(ptr noundef nonnull align 8 dereferenceable(8) %this) #4 comdat align 2 {
entry:
  %this.addr = alloca ptr, align 8
  store ptr %this, ptr %this.addr, align 8
  %this1 = load ptr, ptr %this.addr, align 8
  %data_ = getelementptr inbounds %"class.node::BaseObjectPtrImpl.411", ptr %this1, i32 0, i32 0
  %0 = load ptr, ptr %data_, align 8
  ret ptr %0
}

; Function Attrs: mustprogress nounwind uwtable
define linkonce_odr dso_local noundef ptr @_ZNK4node17BaseObjectPtrImplINS_5http211Http2StreamELb0EE3getEv(ptr noundef nonnull align 8 dereferenceable(8) %this) #4 comdat align 2 {
entry:
  %this.addr = alloca ptr, align 8
  store ptr %this, ptr %this.addr, align 8
  %this1 = load ptr, ptr %this.addr, align 8
  %call = call noundef ptr @_ZNK4node17BaseObjectPtrImplINS_5http211Http2StreamELb0EE15get_base_objectEv(ptr noundef nonnull align 8 dereferenceable(8) %this1)
  ret ptr %call
}

; Function Attrs: mustprogress nounwind uwtable
define linkonce_odr dso_local void @_ZN4node17BaseObjectPtrImplINS_5http211Http2StreamELb0EED2Ev(ptr noundef nonnull align 8 dereferenceable(8) %this) unnamed_addr #4 comdat align 2 {
entry:
  %this.addr = alloca ptr, align 8
  store ptr %this, ptr %this.addr, align 8
  %this1 = load ptr, ptr %this.addr, align 8
  %call = call noundef ptr @_ZNK4node17BaseObjectPtrImplINS_5http211Http2StreamELb0EE3getEv(ptr noundef nonnull align 8 dereferenceable(8) %this1)
  %cmp = icmp ne ptr %call, null
  br i1 %cmp, label %if.then, label %if.end

if.then:                                          ; preds = %entry
  %call2 = call noundef ptr @_ZNK4node17BaseObjectPtrImplINS_5http211Http2StreamELb0EE3getEv(ptr noundef nonnull align 8 dereferenceable(8) %this1)
  call void @_ZN4node10BaseObject17decrease_refcountEv(ptr noundef nonnull align 8 dereferenceable(32) %call2)
  br label %if.end

if.end:                                           ; preds = %if.then, %entry
  ret void
}

; Function Attrs: mustprogress nounwind uwtable
define linkonce_odr dso_local noundef zeroext i1 @_ZNK4node5http211Http2Stream12is_destroyedEv(ptr noundef nonnull align 8 dereferenceable(368) %this) #4 comdat align 2 {
entry:
  %this.addr = alloca ptr, align 8
  store ptr %this, ptr %this.addr, align 8
  %this1 = load ptr, ptr %this.addr, align 8
  %flags_ = getelementptr inbounds %"class.node::http2::Http2Stream", ptr %this1, i32 0, i32 6
  %0 = load i32, ptr %flags_, align 8
  %and = and i32 %0, 16
  %tobool = icmp ne i32 %and, 0
  ret i1 %tobool
}

; Function Attrs: mustprogress nounwind uwtable
define linkonce_odr dso_local noundef ptr @_ZNK4node17BaseObjectPtrImplINS_5http211Http2StreamELb0EEptEv(ptr noundef nonnull align 8 dereferenceable(8) %this) #4 comdat align 2 {
entry:
  %this.addr = alloca ptr, align 8
  store ptr %this, ptr %this.addr, align 8
  %this1 = load ptr, ptr %this.addr, align 8
  %call = call noundef ptr @_ZNK4node17BaseObjectPtrImplINS_5http211Http2StreamELb0EE3getEv(ptr noundef nonnull align 8 dereferenceable(8) %this1)
  ret ptr %call
}

; Function Attrs: mustprogress nounwind uwtable
define linkonce_odr dso_local noundef zeroext i1 @_ZNK4node17BaseObjectPtrImplINS_5http211Http2StreamELb0EEcvbEv(ptr noundef nonnull align 8 dereferenceable(8) %this) #4 comdat align 2 {
entry:
  %this.addr = alloca ptr, align 8
  store ptr %this, ptr %this.addr, align 8
  %this1 = load ptr, ptr %this.addr, align 8
  %call = call noundef ptr @_ZNK4node17BaseObjectPtrImplINS_5http211Http2StreamELb0EE3getEv(ptr noundef nonnull align 8 dereferenceable(8) %this1)
  %cmp = icmp ne ptr %call, null
  ret i1 %cmp
}

; Function Attrs: mustprogress nounwind uwtable
define dso_local noundef i32 @_ZN4node5http210GetFrameIDEPK13nghttp2_frame(ptr noundef %frame) #4 {
entry:
  %frame.addr = alloca ptr, align 8
  store ptr %frame, ptr %frame.addr, align 8
  %0 = load ptr, ptr %frame.addr, align 8
  %type = getelementptr inbounds %struct.nghttp2_frame_hd, ptr %0, i32 0, i32 2
  %1 = load i8, ptr %type, align 4
  %conv = zext i8 %1 to i32
  %cmp = icmp eq i32 %conv, 5
  br i1 %cmp, label %cond.true, label %cond.false

cond.true:                                        ; preds = %entry
  %2 = load ptr, ptr %frame.addr, align 8
  %promised_stream_id = getelementptr inbounds %struct.nghttp2_push_promise, ptr %2, i32 0, i32 4
  %3 = load i32, ptr %promised_stream_id, align 8
  br label %cond.end

cond.false:                                       ; preds = %entry
  %4 = load ptr, ptr %frame.addr, align 8
  %stream_id = getelementptr inbounds %struct.nghttp2_frame_hd, ptr %4, i32 0, i32 1
  %5 = load i32, ptr %stream_id, align 8
  br label %cond.end

cond.end:                                         ; preds = %cond.false, %cond.true
  %cond = phi i32 [ %3, %cond.true ], [ %5, %cond.false ]
  ret i32 %cond
}

; Function Attrs: mustprogress nounwind uwtable
define dso_local noundef i32 @_ZN4node5http212Http2Session16OnHeaderCallbackEP15nghttp2_sessionPK13nghttp2_frameP13nghttp2_rcbufS8_hPv(ptr noundef %handle, ptr noundef %frame, ptr noundef %name, ptr noundef %value, i8 noundef zeroext %flags, ptr noundef %user_data) #4 align 2 {
entry:
  %retval = alloca i32, align 4
  %handle.addr = alloca ptr, align 8
  %frame.addr = alloca ptr, align 8
  %name.addr = alloca ptr, align 8
  %value.addr = alloca ptr, align 8
  %flags.addr = alloca i8, align 1
  %user_data.addr = alloca ptr, align 8
  %session = alloca ptr, align 8
  %id = alloca i32, align 4
  %stream = alloca %"class.node::BaseObjectPtrImpl.411", align 8
  %cleanup.dest.slot = alloca i32, align 4
  store ptr %handle, ptr %handle.addr, align 8
  store ptr %frame, ptr %frame.addr, align 8
  store ptr %name, ptr %name.addr, align 8
  store ptr %value, ptr %value.addr, align 8
  store i8 %flags, ptr %flags.addr, align 1
  store ptr %user_data, ptr %user_data.addr, align 8
  %0 = load ptr, ptr %user_data.addr, align 8
  store ptr %0, ptr %session, align 8
  %1 = load ptr, ptr %frame.addr, align 8
  %call = call noundef i32 @_ZN4node5http210GetFrameIDEPK13nghttp2_frame(ptr noundef %1)
  store i32 %call, ptr %id, align 4
  %2 = load ptr, ptr %session, align 8
  %3 = load i32, ptr %id, align 4
  call void @_ZN4node5http212Http2Session10FindStreamEi(ptr sret(%"class.node::BaseObjectPtrImpl.411") align 8 %stream, ptr noundef nonnull align 8 dereferenceable(640) %2, i32 noundef %3)
  %call1 = call noundef zeroext i1 @_ZNK4node17BaseObjectPtrImplINS_5http211Http2StreamELb0EEcvbEv(ptr noundef nonnull align 8 dereferenceable(8) %stream)
  %lnot = xor i1 %call1, true
  %lnot2 = xor i1 %lnot, true
  %lnot3 = xor i1 %lnot2, true
  br i1 %lnot3, label %if.then, label %if.end

if.then:                                          ; preds = %entry
  store i32 -521, ptr %retval, align 4
  store i32 1, ptr %cleanup.dest.slot, align 4
  br label %cleanup

if.end:                                           ; preds = %entry
  %call4 = call noundef ptr @_ZNK4node17BaseObjectPtrImplINS_5http211Http2StreamELb0EEptEv(ptr noundef nonnull align 8 dereferenceable(8) %stream)
  %call5 = call noundef zeroext i1 @_ZNK4node5http211Http2Stream12is_destroyedEv(ptr noundef nonnull align 8 dereferenceable(368) %call4)
  br i1 %call5, label %if.end10, label %land.lhs.true

land.lhs.true:                                    ; preds = %if.end
  %call6 = call noundef ptr @_ZNK4node17BaseObjectPtrImplINS_5http211Http2StreamELb0EEptEv(ptr noundef nonnull align 8 dereferenceable(8) %stream)
  %4 = load ptr, ptr %name.addr, align 8
  %5 = load ptr, ptr %value.addr, align 8
  %6 = load i8, ptr %flags.addr, align 1
  %call7 = call noundef zeroext i1 @_ZN4node5http211Http2Stream9AddHeaderEP13nghttp2_rcbufS3_h(ptr noundef nonnull align 8 dereferenceable(368) %call6, ptr noundef %4, ptr noundef %5, i8 noundef zeroext %6)
  br i1 %call7, label %if.end10, label %if.then8

if.then8:                                         ; preds = %land.lhs.true
  %call9 = call noundef ptr @_ZNK4node17BaseObjectPtrImplINS_5http211Http2StreamELb0EEptEv(ptr noundef nonnull align 8 dereferenceable(8) %stream)
  call void @_ZN4node5http211Http2Stream15SubmitRstStreamEj(ptr noundef nonnull align 8 dereferenceable(368) %call9, i32 noundef 11)
  store i32 -521, ptr %retval, align 4
  store i32 1, ptr %cleanup.dest.slot, align 4
  br label %cleanup

if.end10:                                         ; preds = %land.lhs.true, %if.end
  store i32 0, ptr %retval, align 4
  store i32 1, ptr %cleanup.dest.slot, align 4
  br label %cleanup

cleanup:                                          ; preds = %if.end10, %if.then8, %if.then
  call void @_ZN4node17BaseObjectPtrImplINS_5http211Http2StreamELb0EED2Ev(ptr noundef nonnull align 8 dereferenceable(8) %stream) #3
  %7 = load i32, ptr %retval, align 4
  ret i32 %7
}