; Function Attrs: mustprogress nounwind uwtable
define dso_local noundef i32 @_ZN4node5http212Http2Session16OnHeaderCallbackEP15nghttp2_sessionPK13nghttp2_frameP13nghttp2_rcbufS8_hPv(ptr nocapture readnone %handle, ptr nocapture noundef readonly %frame, ptr noundef %name, ptr noundef %value, i8 noundef zeroext %flags, ptr nocapture noundef nonnull readonly %user_data) #4 align 2 {
entry:
  %stream = alloca %"class.node::BaseObjectPtrImpl.411", align 8
  %type.i = getelementptr inbounds i8, ptr %frame, i64 12
  %0 = load i8, ptr %type.i, align 4
  %cmp.i = icmp eq i8 %0, 5
  %cond.in.v.i = select i1 %cmp.i, i64 40, i64 8
  %cond.in.i = getelementptr inbounds i8, ptr %frame, i64 %cond.in.v.i
  %cond.i = load i32, ptr %cond.in.i, align 8
  call void @_ZN4node5http212Http2Session10FindStreamEi(ptr nonnull sret(%"class.node::BaseObjectPtrImpl.411") align 8 %stream, ptr noundef nonnull align 8 dereferenceable(640) %user_data, i32 noundef %cond.i)
  %1 = load ptr, ptr %stream, align 8
  %cmp.i1.not = icmp eq ptr %1, null
  br i1 %cmp.i1.not, label %_ZN4node17BaseObjectPtrImplINS_5http211Http2StreamELb0EED2Ev.exit, label %if.end

if.end:                                           ; preds = %entry
  %flags_.i = getelementptr inbounds i8, ptr %1, i64 200
  %2 = load i32, ptr %flags_.i, align 8
  %and.i = and i32 %2, 16
  %tobool.i.not = icmp eq i32 %and.i, 0
  br i1 %tobool.i.not, label %land.lhs.true, label %if.then.i

land.lhs.true:                                    ; preds = %if.end
  %call7 = tail call noundef zeroext i1 @_ZN4node5http211Http2Stream9AddHeaderEP13nghttp2_rcbufS3_h(ptr noundef nonnull align 8 dereferenceable(368) %1, ptr noundef %name, ptr noundef %value, i8 noundef zeroext %flags)
  br i1 %call7, label %if.then.i, label %if.then8

if.then8:                                         ; preds = %land.lhs.true
  tail call void @_ZN4node5http211Http2Stream15SubmitRstStreamEj(ptr noundef nonnull align 8 dereferenceable(368) %1, i32 noundef 11)
  br label %if.then.i

if.then.i:                                        ; preds = %if.end, %land.lhs.true, %if.then8
  %retval.0.ph = phi i32 [ 0, %if.end ], [ 0, %land.lhs.true ], [ -521, %if.then8 ]
  tail call void @_ZN4node10BaseObject17decrease_refcountEv(ptr noundef nonnull align 8 dereferenceable(32) %1) #29
  br label %_ZN4node17BaseObjectPtrImplINS_5http211Http2StreamELb0EED2Ev.exit

_ZN4node17BaseObjectPtrImplINS_5http211Http2StreamELb0EED2Ev.exit: ; preds = %entry, %if.then.i
  %retval.05 = phi i32 [ %retval.0.ph, %if.then.i ], [ -521, %entry ]
  ret i32 %retval.05
}